; Function Attrs: mustprogress uwtable
define hidden noundef ptr @_ZN7datalog24interval_relation_plugin10mk_join_fnERKNS_13relation_baseES3_jPKjS5_(ptr noundef nonnull readnone align 8 captures(address) dereferenceable(240) %0, ptr noundef nonnull align 8 dereferenceable(28) %1, ptr noundef nonnull align 8 dereferenceable(28) %2, i32 noundef %3, ptr noundef %4, ptr noundef %5) unnamed_addr #3 align 2 {
  %7 = getelementptr inbounds nuw i8, ptr %1, i64 8
  %8 = load ptr, ptr %7, align 8, !tbaa !48
  %9 = icmp eq ptr %8, %0
  %10 = getelementptr inbounds nuw i8, ptr %2, i64 8
  %11 = load ptr, ptr %10, align 8
  %12 = icmp eq ptr %11, %0
  %or.cond = select i1 %9, i1 %12, i1 false
  br i1 %or.cond, label %13, label %17

13:                                               ; preds = %6
  %14 = tail call noalias noundef ptr @_ZN6memory8allocateEm(i64 noundef 32)
  %15 = getelementptr inbounds nuw i8, ptr %1, i64 16
  %16 = getelementptr inbounds nuw i8, ptr %2, i64 16
  tail call void @_ZN7datalog17tr_infrastructureINS_15relation_traitsEE18convenient_join_fnC2ERKNS_18relation_signatureES6_jPKjS8_(ptr noundef nonnull align 8 dereferenceable(32) %14, ptr noundef nonnull align 8 dereferenceable(8) %15, ptr noundef nonnull align 8 dereferenceable(8) %16, i32 noundef %3, ptr noundef %4, ptr noundef %5)
  store ptr getelementptr inbounds nuw inrange(-16, 24) (i8, ptr @_ZTVN7datalog24interval_relation_plugin7join_fnE, i64 16), ptr %14, align 8, !tbaa !17
  br label %17

17:                                               ; preds = %6, %13
  %.0 = phi ptr [ %14, %13 ], [ null, %6 ]
  ret ptr %.0
}